target datalayout = "e-m:e-p270:32:32-p271:32:32-p272:64:64-i64:64-i128:128-f80:128-n8:16:32:64-S128"
target triple = "x86_64-pc-linux-gnu"

%"class.duckdb_fmt::v6::basic_string_view" = type { ptr, i64 }
%"class.duckdb_fmt::v6::internal::buffer" = type { ptr, ptr, i64, i64 }
%"class.duckdb_fmt::v6::basic_memory_buffer" = type <{ %"class.duckdb_fmt::v6::internal::buffer", [500 x i8], [4 x i8] }>
%"class.std::allocator" = type { i8 }

; Function Attrs: mustprogress nounwind uwtable
define linkonce_odr void @_ZNSt15__new_allocatorIcE10deallocateEPcm(ptr noundef nonnull align 1 dereferenceable(1) %0, ptr noundef %1, i64 noundef %2) #0 comdat align 2 {
  %4 = alloca ptr, align 8
  %5 = alloca ptr, align 8
  %6 = alloca i64, align 8
  store ptr %0, ptr %4, align 8, !tbaa !170
  store ptr %1, ptr %5, align 8, !tbaa !18
  store i64 %2, ptr %6, align 8, !tbaa !10
  %7 = load ptr, ptr %5, align 8, !tbaa !18
  call void @_ZdlPv(ptr noundef %7) #24
  ret void
}

; Function Attrs: mustprogress nounwind uwtable
define linkonce_odr noundef i64 @_ZNK10duckdb_fmt2v68internal6bufferIcE8capacityEv(ptr noundef nonnull align 8 dereferenceable(32) %0) #0 comdat align 2 {
  %2 = alloca ptr, align 8
  store ptr %0, ptr %2, align 8, !tbaa !20
  %3 = load ptr, ptr %2, align 8
  %4 = getelementptr inbounds nuw %"class.duckdb_fmt::v6::internal::buffer", ptr %3, i32 0, i32 3
  %5 = load i64, ptr %4, align 8, !tbaa !73
  ret i64 %5
}

; Function Attrs: mustprogress nounwind uwtable
define linkonce_odr noundef ptr @_ZN10duckdb_fmt2v68internal6bufferIcE4dataEv(ptr noundef nonnull align 8 dereferenceable(32) %0) #0 comdat align 2 {
  %2 = alloca ptr, align 8
  store ptr %0, ptr %2, align 8, !tbaa !20
  %3 = load ptr, ptr %2, align 8
  %4 = getelementptr inbounds nuw %"class.duckdb_fmt::v6::internal::buffer", ptr %3, i32 0, i32 1
  %5 = load ptr, ptr %4, align 8, !tbaa !74
  ret ptr %5
}

; Function Attrs: mustprogress nounwind uwtable
define linkonce_odr void @_ZNSt15__new_allocatorIcEC2ERKS0_(ptr noundef nonnull align 1 dereferenceable(1) %0, ptr noundef nonnull align 1 dereferenceable(1) %1) unnamed_addr #0 comdat align 2 {
  %3 = alloca ptr, align 8
  %4 = alloca ptr, align 8
  store ptr %0, ptr %3, align 8, !tbaa !170
  store ptr %1, ptr %4, align 8, !tbaa !170
  ret void
}

; Function Attrs: mustprogress nounwind uwtable
define linkonce_odr void @_ZN10duckdb_fmt2v68internal6bufferIcED2Ev(ptr noundef nonnull align 8 dereferenceable(32) %0) unnamed_addr #0 comdat align 2 {
  %2 = alloca ptr, align 8
  store ptr %0, ptr %2, align 8, !tbaa !20
  ret void
}

; Function Attrs: mustprogress nounwind uwtable
define linkonce_odr void @_ZN10duckdb_fmt2v619basic_memory_bufferIcLm500ESaIcEE10deallocateEv(ptr noundef nonnull align 8 dereferenceable(532) %0) #0 comdat align 2 {
  %2 = alloca ptr, align 8
  %3 = alloca ptr, align 8
  store ptr %0, ptr %2, align 8, !tbaa !42
  %4 = load ptr, ptr %2, align 8
  call void @llvm.lifetime.start.p0(i64 8, ptr %3) #20
  %5 = call noundef ptr @_ZN10duckdb_fmt2v68internal6bufferIcE4dataEv(ptr noundef nonnull align 8 dereferenceable(32) %4) #20
  store ptr %5, ptr %3, align 8, !tbaa !18
  %6 = load ptr, ptr %3, align 8, !tbaa !18
  %7 = getelementptr inbounds nuw %"class.duckdb_fmt::v6::basic_memory_buffer", ptr %4, i32 0, i32 1
  %8 = getelementptr inbounds [500 x i8], ptr %7, i64 0, i64 0
  %9 = icmp ne ptr %6, %8
  br i1 %9, label %10, label %13

10:                                               ; preds = %1
  %11 = load ptr, ptr %3, align 8, !tbaa !18
  %12 = call noundef i64 @_ZNK10duckdb_fmt2v68internal6bufferIcE8capacityEv(ptr noundef nonnull align 8 dereferenceable(32) %4) #20
  call void @_ZNSt15__new_allocatorIcE10deallocateEPcm(ptr noundef nonnull align 1 dereferenceable(1) %4, ptr noundef %11, i64 noundef %12)
  br label %13

13:                                               ; preds = %10, %1
  call void @llvm.lifetime.end.p0(i64 8, ptr %3) #20
  ret void
}

; Function Attrs: mustprogress nounwind uwtable
define linkonce_odr void @_ZN10duckdb_fmt2v68internal6bufferIcE3setEPcm(ptr noundef nonnull align 8 dereferenceable(32) %0, ptr noundef %1, i64 noundef %2) #0 comdat align 2 {
  %4 = alloca ptr, align 8
  %5 = alloca ptr, align 8
  %6 = alloca i64, align 8
  store ptr %0, ptr %4, align 8, !tbaa !20
  store ptr %1, ptr %5, align 8, !tbaa !18
  store i64 %2, ptr %6, align 8, !tbaa !10
  %7 = load ptr, ptr %4, align 8
  %8 = load ptr, ptr %5, align 8, !tbaa !18
  %9 = getelementptr inbounds nuw %"class.duckdb_fmt::v6::internal::buffer", ptr %7, i32 0, i32 1
  store ptr %8, ptr %9, align 8, !tbaa !74
  %10 = load i64, ptr %6, align 8, !tbaa !10
  %11 = getelementptr inbounds nuw %"class.duckdb_fmt::v6::internal::buffer", ptr %7, i32 0, i32 3
  store i64 %10, ptr %11, align 8, !tbaa !73
  ret void
}

; Function Attrs: mustprogress nounwind uwtable
define linkonce_odr void @_ZN10duckdb_fmt2v68internal6bufferIcEC2EPcmm(ptr noundef nonnull align 8 dereferenceable(32) %0, ptr noundef %1, i64 noundef %2, i64 noundef %3) unnamed_addr #0 comdat align 2 {
  %5 = alloca ptr, align 8
  %6 = alloca ptr, align 8
  %7 = alloca i64, align 8
  %8 = alloca i64, align 8
  store ptr %0, ptr %5, align 8, !tbaa !20
  store ptr %1, ptr %6, align 8, !tbaa !18
  store i64 %2, ptr %7, align 8, !tbaa !10
  store i64 %3, ptr %8, align 8, !tbaa !10
  %9 = load ptr, ptr %5, align 8
  store ptr getelementptr inbounds inrange(-16, 24) ({ [5 x ptr] }, ptr @_ZTVN10duckdb_fmt2v68internal6bufferIcEE, i32 0, i32 0, i32 2), ptr %9, align 8, !tbaa !44
  %10 = getelementptr inbounds nuw %"class.duckdb_fmt::v6::internal::buffer", ptr %9, i32 0, i32 1
  %11 = load ptr, ptr %6, align 8, !tbaa !18
  store ptr %11, ptr %10, align 8, !tbaa !74
  %12 = getelementptr inbounds nuw %"class.duckdb_fmt::v6::internal::buffer", ptr %9, i32 0, i32 2
  %13 = load i64, ptr %7, align 8, !tbaa !10
  store i64 %13, ptr %12, align 8, !tbaa !23
  %14 = getelementptr inbounds nuw %"class.duckdb_fmt::v6::internal::buffer", ptr %9, i32 0, i32 3
  %15 = load i64, ptr %8, align 8, !tbaa !10
  store i64 %15, ptr %14, align 8, !tbaa !73
  ret void
}

; Function Attrs: mustprogress nounwind uwtable
define available_externally void @_ZNSaIcEC2ERKS_(ptr noundef nonnull align 1 dereferenceable(1) %0, ptr noundef nonnull align 1 dereferenceable(1) %1) unnamed_addr #0 align 2 {
  %3 = alloca ptr, align 8
  %4 = alloca ptr, align 8
  store ptr %0, ptr %3, align 8, !tbaa !40
  store ptr %1, ptr %4, align 8, !tbaa !40
  %5 = load ptr, ptr %3, align 8
  %6 = load ptr, ptr %4, align 8, !tbaa !40
  call void @_ZNSt15__new_allocatorIcEC2ERKS0_(ptr noundef nonnull align 1 dereferenceable(1) %5, ptr noundef nonnull align 1 dereferenceable(1) %6) #20
  ret void
}

; Function Attrs: mustprogress nounwind uwtable
define linkonce_odr void @_ZNSt15__new_allocatorIcEC2Ev(ptr noundef nonnull align 1 dereferenceable(1) %0) unnamed_addr #0 comdat align 2 {
  %2 = alloca ptr, align 8
  store ptr %0, ptr %2, align 8, !tbaa !170
  ret void
}

; Function Attrs: mustprogress nounwind uwtable
define linkonce_odr void @_ZN10duckdb_fmt2v619basic_memory_bufferIcLm500ESaIcEED2Ev(ptr noundef nonnull align 8 dereferenceable(532) %0) unnamed_addr #0 comdat align 2 personality ptr @__gxx_personality_v0 {
  %2 = alloca ptr, align 8
  store ptr %0, ptr %2, align 8, !tbaa !42
  %3 = load ptr, ptr %2, align 8
  store ptr getelementptr inbounds inrange(-16, 24) ({ [5 x ptr] }, ptr @_ZTVN10duckdb_fmt2v619basic_memory_bufferIcLm500ESaIcEEE, i32 0, i32 0, i32 2), ptr %3, align 8, !tbaa !44
  invoke void @_ZN10duckdb_fmt2v619basic_memory_bufferIcLm500ESaIcEE10deallocateEv(ptr noundef nonnull align 8 dereferenceable(532) %3)
          to label %4 unwind label %5

4:                                                ; preds = %1
  call void @_ZN10duckdb_fmt2v68internal6bufferIcED2Ev(ptr noundef nonnull align 8 dereferenceable(32) %3) #20
  call void @_ZNSt15__new_allocatorIcED2Ev(ptr noundef nonnull align 1 dereferenceable(1) %3) #20
  ret void

5:                                                ; preds = %1
  %6 = landingpad { ptr, i32 }
          catch ptr null
  %7 = extractvalue { ptr, i32 } %6, 0
  call void @__clang_call_terminate(ptr %7) #21
  unreachable
}

; Function Attrs: mustprogress nounwind uwtable
define linkonce_odr void @_ZNSt15__new_allocatorIcED2Ev(ptr noundef nonnull align 1 dereferenceable(1) %0) unnamed_addr #0 comdat align 2 {
  %2 = alloca ptr, align 8
  store ptr %0, ptr %2, align 8, !tbaa !170
  ret void
}

; Function Attrs: mustprogress nounwind uwtable
define linkonce_odr void @_ZN10duckdb_fmt2v619basic_memory_bufferIcLm500ESaIcEEC2ERKS2_(ptr noundef nonnull align 8 dereferenceable(532) %0, ptr noundef nonnull align 1 dereferenceable(1) %1) unnamed_addr #0 comdat align 2 {
  %3 = alloca ptr, align 8
  %4 = alloca ptr, align 8
  store ptr %0, ptr %3, align 8, !tbaa !42
  store ptr %1, ptr %4, align 8, !tbaa !40
  %5 = load ptr, ptr %3, align 8
  %6 = load ptr, ptr %4, align 8, !tbaa !40
  call void @_ZNSaIcEC2ERKS_(ptr noundef nonnull align 1 dereferenceable(1) %5, ptr noundef nonnull align 1 dereferenceable(1) %6) #20
  call void @_ZN10duckdb_fmt2v68internal6bufferIcEC2EPcmm(ptr noundef nonnull align 8 dereferenceable(32) %5, ptr noundef null, i64 noundef 0, i64 noundef 0) #20
  store ptr getelementptr inbounds inrange(-16, 24) ({ [5 x ptr] }, ptr @_ZTVN10duckdb_fmt2v619basic_memory_bufferIcLm500ESaIcEEE, i32 0, i32 0, i32 2), ptr %5, align 8, !tbaa !44
  %7 = getelementptr inbounds nuw %"class.duckdb_fmt::v6::basic_memory_buffer", ptr %5, i32 0, i32 1
  %8 = getelementptr inbounds [500 x i8], ptr %7, i64 0, i64 0
  call void @_ZN10duckdb_fmt2v68internal6bufferIcE3setEPcm(ptr noundef nonnull align 8 dereferenceable(32) %5, ptr noundef %8, i64 noundef 500) #20
  ret void
}

; Function Attrs: mustprogress nounwind uwtable
define available_externally void @_ZNSaIcEC2Ev(ptr noundef nonnull align 1 dereferenceable(1) %0) unnamed_addr #0 align 2 {
  %2 = alloca ptr, align 8
  store ptr %0, ptr %2, align 8, !tbaa !40
  %3 = load ptr, ptr %2, align 8
  call void @_ZNSt15__new_allocatorIcEC2Ev(ptr noundef nonnull align 1 dereferenceable(1) %3) #20
  ret void
}

; Function Attrs: mustprogress nounwind uwtable
define void @_ZN10duckdb_fmt2v68internal12report_errorEPFvRNS1_6bufferIcEEiNS0_17basic_string_viewIcEEEiS6_(ptr noundef %0, i32 noundef %1, ptr %2, i64 %3) #0 personality ptr @__gxx_personality_v0 {
  %5 = alloca %"class.duckdb_fmt::v6::basic_string_view", align 8
  %6 = alloca ptr, align 8
  %7 = alloca i32, align 4
  %8 = alloca %"class.duckdb_fmt::v6::basic_memory_buffer", align 8
  %9 = alloca %"class.std::allocator", align 1
  %10 = alloca %"class.duckdb_fmt::v6::basic_string_view", align 8
  %11 = getelementptr inbounds nuw { ptr, i64 }, ptr %5, i32 0, i32 0
  store ptr %2, ptr %11, align 8
  %12 = getelementptr inbounds nuw { ptr, i64 }, ptr %5, i32 0, i32 1
  store i64 %3, ptr %12, align 8
  store ptr %0, ptr %6, align 8, !tbaa !34
  store i32 %1, ptr %7, align 4, !tbaa !3
  call void @llvm.lifetime.start.p0(i64 536, ptr %8) #20
  call void @llvm.lifetime.start.p0(i64 1, ptr %9) #20
  call void @_ZNSaIcEC2Ev(ptr noundef nonnull align 1 dereferenceable(1) %9) #20
  invoke void @_ZN10duckdb_fmt2v619basic_memory_bufferIcLm500ESaIcEEC2ERKS2_(ptr noundef nonnull align 8 dereferenceable(532) %8, ptr noundef nonnull align 1 dereferenceable(1) %9)
          to label %13 unwind label %21

13:                                               ; preds = %4
  call void @_ZNSt15__new_allocatorIcED2Ev(ptr noundef nonnull align 1 dereferenceable(1) %9) #20
  call void @llvm.lifetime.end.p0(i64 1, ptr %9) #20
  %14 = load ptr, ptr %6, align 8, !tbaa !34
  %15 = load i32, ptr %7, align 4, !tbaa !3
  call void @llvm.memcpy.p0.p0.i64(ptr align 8 %10, ptr align 8 %5, i64 16, i1 false), !tbaa.struct !22
  %16 = getelementptr inbounds nuw { ptr, i64 }, ptr %10, i32 0, i32 0
  %17 = load ptr, ptr %16, align 8
  %18 = getelementptr inbounds nuw { ptr, i64 }, ptr %10, i32 0, i32 1
  %19 = load i64, ptr %18, align 8
  invoke void %14(ptr noundef nonnull align 8 dereferenceable(32) %8, i32 noundef %15, ptr %17, i64 %19)
          to label %20 unwind label %21

20:                                               ; preds = %13
  call void @_ZN10duckdb_fmt2v619basic_memory_bufferIcLm500ESaIcEED2Ev(ptr noundef nonnull align 8 dereferenceable(532) %8) #20
  call void @llvm.lifetime.end.p0(i64 536, ptr %8) #20
  ret void

21:                                               ; preds = %13, %4
  %22 = landingpad { ptr, i32 }
          catch ptr null
  %23 = extractvalue { ptr, i32 } %22, 0
  call void @__clang_call_terminate(ptr %23) #21
  unreachable
}