; Function Attrs: mustprogress nounwind uwtable
define void @_ZN10duckdb_fmt2v68internal12report_errorEPFvRNS1_6bufferIcEEiNS0_17basic_string_viewIcEEEiS6_(ptr noundef readonly captures(none) %0, i32 noundef %1, ptr %2, i64 %3) local_unnamed_addr #0 personality ptr @__gxx_personality_v0 {
  %5 = alloca %"class.duckdb_fmt::v6::basic_memory_buffer", align 8
  call void @llvm.lifetime.start.p0(i64 536, ptr nonnull %5) #25
  %6 = getelementptr inbounds nuw i8, ptr %5, i64 8
  %7 = getelementptr inbounds nuw i8, ptr %5, i64 24
  %8 = getelementptr inbounds nuw i8, ptr %5, i64 16
  store i64 0, ptr %8, align 8
  store ptr getelementptr inbounds nuw inrange(-16, 24) (i8, ptr @_ZTVN10duckdb_fmt2v619basic_memory_bufferIcLm500ESaIcEEE, i64 16), ptr %5, align 8, !tbaa !15
  %9 = getelementptr inbounds nuw i8, ptr %5, i64 32
  store ptr %9, ptr %6, align 8, !tbaa !17
  store i64 500, ptr %7, align 8, !tbaa !14
  invoke void %0(ptr noundef nonnull align 8 dereferenceable(32) %5, i32 noundef %1, ptr %2, i64 %3)
          to label %10 unwind label %13

10:                                               ; preds = %4
  store ptr getelementptr inbounds nuw inrange(-16, 24) (i8, ptr @_ZTVN10duckdb_fmt2v619basic_memory_bufferIcLm500ESaIcEEE, i64 16), ptr %5, align 8, !tbaa !15
  %11 = load ptr, ptr %6, align 8, !tbaa !17
  %.not.i.i = icmp eq ptr %11, %9
  br i1 %.not.i.i, label %_ZN10duckdb_fmt2v619basic_memory_bufferIcLm500ESaIcEED2Ev.exit, label %12

12:                                               ; preds = %10
  call void @_ZdlPv(ptr noundef %11) #28
  br label %_ZN10duckdb_fmt2v619basic_memory_bufferIcLm500ESaIcEED2Ev.exit

_ZN10duckdb_fmt2v619basic_memory_bufferIcLm500ESaIcEED2Ev.exit: ; preds = %10, %12
  call void @llvm.lifetime.end.p0(i64 536, ptr nonnull %5) #25
  ret void

13:                                               ; preds = %4
  %14 = landingpad { ptr, i32 }
          catch ptr null
  %15 = extractvalue { ptr, i32 } %14, 0
  call void @__clang_call_terminate(ptr %15) #27
  unreachable
}